target datalayout = "e-m:e-p270:32:32-p271:32:32-p272:64:64-i64:64-i128:128-f80:128-n8:16:32:64-S128"
target triple = "x86_64-pc-linux-gnu"

%struct.SDL_CameraDriver = type { ptr, ptr, %struct.SDL_CameraDriverImpl, ptr, ptr, %struct.SDL_PendingCameraEvent, ptr, %struct.SDL_AtomicInt, %struct.SDL_AtomicInt }
%struct.SDL_CameraDriverImpl = type { ptr, ptr, ptr, ptr, ptr, ptr, ptr, ptr, i8 }
%struct.SDL_PendingCameraEvent = type { i32, i32, ptr }
%struct.SDL_AtomicInt = type { i32 }
%struct.SDL_Camera = type { ptr, ptr, i32, %struct.SDL_AtomicInt, ptr, ptr, ptr, ptr, i32, %struct.SDL_CameraSpec, %struct.SDL_CameraSpec, i32, ptr, i32, i64, i64, ptr, ptr, [8 x %struct.SurfaceList], %struct.SurfaceList, %struct.SurfaceList, %struct.SurfaceList, ptr, i32, i8, %struct.SDL_AtomicInt, %struct.SDL_AtomicInt, ptr, i32, i32, ptr }
%struct.SDL_CameraSpec = type { i32, i32, i32, i32, i32, i32 }
%struct.SurfaceList = type { ptr, i64, ptr }

@camera_driver = internal global %struct.SDL_CameraDriver zeroinitializer, align 8

; Function Attrs: nounwind uwtable
define internal void @DestroyCameraHashItem(ptr noundef %0, ptr noundef %1, ptr noundef %2) #0 {
  %4 = alloca ptr, align 8
  %5 = alloca ptr, align 8
  %6 = alloca ptr, align 8
  %7 = alloca ptr, align 8
  store ptr %0, ptr %4, align 8
  store ptr %1, ptr %5, align 8
  store ptr %2, ptr %6, align 8
  call void @llvm.lifetime.start.p0(i64 8, ptr %7) #7
  %8 = load ptr, ptr %6, align 8
  store ptr %8, ptr %7, align 8
  %9 = load ptr, ptr %7, align 8
  call void @ClosePhysicalCamera(ptr noundef %9)
  %10 = load ptr, ptr getelementptr inbounds nuw (%struct.SDL_CameraDriverImpl, ptr getelementptr inbounds nuw (%struct.SDL_CameraDriver, ptr @camera_driver, i32 0, i32 2), i32 0, i32 6), align 8
  %11 = load ptr, ptr %7, align 8
  call void %10(ptr noundef %11)
  %12 = load ptr, ptr %7, align 8
  %13 = getelementptr inbounds nuw %struct.SDL_Camera, ptr %12, i32 0, i32 0
  %14 = load ptr, ptr %13, align 8
  call void @SDL_DestroyMutex_REAL(ptr noundef %14)
  %15 = load ptr, ptr %7, align 8
  %16 = getelementptr inbounds nuw %struct.SDL_Camera, ptr %15, i32 0, i32 7
  %17 = load ptr, ptr %16, align 8
  call void @SDL_free_REAL(ptr noundef %17)
  %18 = load ptr, ptr %7, align 8
  %19 = getelementptr inbounds nuw %struct.SDL_Camera, ptr %18, i32 0, i32 1
  %20 = load ptr, ptr %19, align 8
  call void @SDL_free_REAL(ptr noundef %20)
  %21 = load ptr, ptr %7, align 8
  call void @SDL_free_REAL(ptr noundef %21)
  call void @llvm.lifetime.end.p0(i64 8, ptr %7) #7
  ret void
}