; Function Attrs: nounwind uwtable
define internal void @DestroyCameraHashItem(ptr readnone captures(none) %0, ptr readnone captures(none) %1, ptr noundef %2) #1 {
  tail call fastcc void @ClosePhysicalCamera(ptr noundef %2)
  %4 = load ptr, ptr getelementptr inbounds nuw (i8, ptr @camera_driver, i64 64), align 8
  tail call void %4(ptr noundef %2) #11
  %5 = load ptr, ptr %2, align 8
  tail call void @SDL_DestroyMutex_REAL(ptr noundef %5) #11
  %6 = getelementptr inbounds nuw i8, ptr %2, i64 48
  %7 = load ptr, ptr %6, align 8
  tail call void @SDL_free_REAL(ptr noundef %7) #11
  %8 = getelementptr inbounds nuw i8, ptr %2, i64 8
  %9 = load ptr, ptr %8, align 8
  tail call void @SDL_free_REAL(ptr noundef %9) #11
  tail call void @SDL_free_REAL(ptr noundef nonnull %2) #11
  ret void
}